target datalayout = "e-m:e-p270:32:32-p271:32:32-p272:64:64-i64:64-i128:128-f80:128-n8:16:32:64-S128"
target triple = "x86_64-pc-linux-gnu"

%struct.Vec_Int_t_ = type { i32, i32, ptr }
%struct.Seg_Man_t_ = type { ptr, i32, i32, i32, i32, i32, i32, i32, i32, i32, i32, ptr, ptr, ptr, ptr, ptr, ptr, ptr, ptr, i64 }
%struct.sat_solver_t = type { i32, i32, i32, i32, %struct.Sat_Mem_t_, i32, i32, ptr, ptr, i32, i32, i32, i32, i32, i64, i64, i64, ptr, ptr, i32, i32, %struct.veci_t, ptr, i32, ptr, ptr, ptr, ptr, ptr, ptr, ptr, ptr, %struct.veci_t, %struct.veci_t, %struct.veci_t, %struct.veci_t, ptr, %struct.veci_t, i32, i32, i32, double, double, i32, i32, i32, %struct.stats_t, i32, i32, i32, i32, i32, i64, i64, i64, %struct.veci_t, ptr, i32, i32, i32, %struct.veci_t, %struct.veci_t, i32, i32, i32, ptr, ptr, i32, ptr, i32, i32, %struct.veci_t, %struct.veci_t, %struct.veci_t, ptr, ptr, i32, ptr }
%struct.Sat_Mem_t_ = type { [2 x i32], [2 x i32], [2 x i32], [2 x i32], i32, i32, i32, i32, ptr }
%struct.stats_t = type { i32, i32, i32, i64, i64, i64, i64, i64, i64, i64 }
%struct.veci_t = type { i32, i32, ptr }

; Function Attrs: inlinehint nounwind uwtable
define internal i32 @Sat_MemLimit(ptr noundef %0) #2 {
  %2 = alloca ptr, align 8
  store ptr %0, ptr %2, align 8, !tbaa !59
  %3 = load ptr, ptr %2, align 8, !tbaa !59
  %4 = getelementptr inbounds i32, ptr %3, i64 0
  %5 = load i32, ptr %4, align 4, !tbaa !10
  ret i32 %5
}

; Function Attrs: inlinehint nounwind uwtable
define internal i32 @Sat_MemHandCurrent(ptr noundef %0, i32 noundef %1) #2 {
  %3 = alloca ptr, align 8
  %4 = alloca i32, align 4
  store ptr %0, ptr %3, align 8, !tbaa !128
  store i32 %1, ptr %4, align 4, !tbaa !10
  %5 = load ptr, ptr %3, align 8, !tbaa !128
  %6 = getelementptr inbounds nuw %struct.Sat_Mem_t_, ptr %5, i32 0, i32 3
  %7 = load i32, ptr %4, align 4, !tbaa !10
  %8 = sext i32 %7 to i64
  %9 = getelementptr inbounds [2 x i32], ptr %6, i64 0, i64 %8
  %10 = load i32, ptr %9, align 4, !tbaa !10
  %11 = load ptr, ptr %3, align 8, !tbaa !128
  %12 = getelementptr inbounds nuw %struct.Sat_Mem_t_, ptr %11, i32 0, i32 4
  %13 = load i32, ptr %12, align 8, !tbaa !130
  %14 = shl i32 %10, %13
  %15 = load ptr, ptr %3, align 8, !tbaa !128
  %16 = getelementptr inbounds nuw %struct.Sat_Mem_t_, ptr %15, i32 0, i32 8
  %17 = load ptr, ptr %16, align 8, !tbaa !131
  %18 = load ptr, ptr %3, align 8, !tbaa !128
  %19 = getelementptr inbounds nuw %struct.Sat_Mem_t_, ptr %18, i32 0, i32 3
  %20 = load i32, ptr %4, align 4, !tbaa !10
  %21 = sext i32 %20 to i64
  %22 = getelementptr inbounds [2 x i32], ptr %19, i64 0, i64 %21
  %23 = load i32, ptr %22, align 4, !tbaa !10
  %24 = sext i32 %23 to i64
  %25 = getelementptr inbounds ptr, ptr %17, i64 %24
  %26 = load ptr, ptr %25, align 8, !tbaa !59
  %27 = call i32 @Sat_MemLimit(ptr noundef %26)
  %28 = or i32 %14, %27
  ret i32 %28
}

; Function Attrs: inlinehint nounwind uwtable
define internal void @Sat_MemBookMark(ptr noundef %0) #2 {
  %2 = alloca ptr, align 8
  store ptr %0, ptr %2, align 8, !tbaa !128
  %3 = load ptr, ptr %2, align 8, !tbaa !128
  %4 = getelementptr inbounds nuw %struct.Sat_Mem_t_, ptr %3, i32 0, i32 0
  %5 = getelementptr inbounds [2 x i32], ptr %4, i64 0, i64 0
  %6 = load i32, ptr %5, align 8, !tbaa !10
  %7 = load ptr, ptr %2, align 8, !tbaa !128
  %8 = getelementptr inbounds nuw %struct.Sat_Mem_t_, ptr %7, i32 0, i32 2
  %9 = getelementptr inbounds [2 x i32], ptr %8, i64 0, i64 0
  store i32 %6, ptr %9, align 8, !tbaa !10
  %10 = load ptr, ptr %2, align 8, !tbaa !128
  %11 = getelementptr inbounds nuw %struct.Sat_Mem_t_, ptr %10, i32 0, i32 0
  %12 = getelementptr inbounds [2 x i32], ptr %11, i64 0, i64 1
  %13 = load i32, ptr %12, align 4, !tbaa !10
  %14 = load ptr, ptr %2, align 8, !tbaa !128
  %15 = getelementptr inbounds nuw %struct.Sat_Mem_t_, ptr %14, i32 0, i32 2
  %16 = getelementptr inbounds [2 x i32], ptr %15, i64 0, i64 1
  store i32 %13, ptr %16, align 4, !tbaa !10
  %17 = load ptr, ptr %2, align 8, !tbaa !128
  %18 = call i32 @Sat_MemHandCurrent(ptr noundef %17, i32 noundef 0)
  %19 = load ptr, ptr %2, align 8, !tbaa !128
  %20 = getelementptr inbounds nuw %struct.Sat_Mem_t_, ptr %19, i32 0, i32 1
  %21 = getelementptr inbounds [2 x i32], ptr %20, i64 0, i64 0
  store i32 %18, ptr %21, align 8, !tbaa !10
  %22 = load ptr, ptr %2, align 8, !tbaa !128
  %23 = call i32 @Sat_MemHandCurrent(ptr noundef %22, i32 noundef 1)
  %24 = load ptr, ptr %2, align 8, !tbaa !128
  %25 = getelementptr inbounds nuw %struct.Sat_Mem_t_, ptr %24, i32 0, i32 1
  %26 = getelementptr inbounds [2 x i32], ptr %25, i64 0, i64 1
  store i32 %23, ptr %26, align 4, !tbaa !10
  ret void
}

; Function Attrs: inlinehint nounwind uwtable
define internal void @sat_solver_bookmark(ptr noundef %0) #2 {
  %2 = alloca ptr, align 8
  store ptr %0, ptr %2, align 8, !tbaa !72
  %3 = load ptr, ptr %2, align 8, !tbaa !72
  %4 = getelementptr inbounds nuw %struct.sat_solver_t, ptr %3, i32 0, i32 0
  %5 = load i32, ptr %4, align 8, !tbaa !73
  %6 = load ptr, ptr %2, align 8, !tbaa !72
  %7 = getelementptr inbounds nuw %struct.sat_solver_t, ptr %6, i32 0, i32 9
  store i32 %5, ptr %7, align 8, !tbaa !85
  %8 = load ptr, ptr %2, align 8, !tbaa !72
  %9 = getelementptr inbounds nuw %struct.sat_solver_t, ptr %8, i32 0, i32 2
  %10 = load i32, ptr %9, align 8, !tbaa !86
  %11 = load ptr, ptr %2, align 8, !tbaa !72
  %12 = getelementptr inbounds nuw %struct.sat_solver_t, ptr %11, i32 0, i32 10
  store i32 %10, ptr %12, align 4, !tbaa !87
  %13 = load ptr, ptr %2, align 8, !tbaa !72
  %14 = getelementptr inbounds nuw %struct.sat_solver_t, ptr %13, i32 0, i32 4
  call void @Sat_MemBookMark(ptr noundef %14)
  %15 = load ptr, ptr %2, align 8, !tbaa !72
  %16 = getelementptr inbounds nuw %struct.sat_solver_t, ptr %15, i32 0, i32 18
  %17 = load ptr, ptr %16, align 8, !tbaa !88
  %18 = icmp ne ptr %17, null
  br i1 %18, label %19, label %36

19:                                               ; preds = %1
  %20 = load ptr, ptr %2, align 8, !tbaa !72
  %21 = getelementptr inbounds nuw %struct.sat_solver_t, ptr %20, i32 0, i32 14
  %22 = load i64, ptr %21, align 8, !tbaa !89
  %23 = load ptr, ptr %2, align 8, !tbaa !72
  %24 = getelementptr inbounds nuw %struct.sat_solver_t, ptr %23, i32 0, i32 15
  store i64 %22, ptr %24, align 8, !tbaa !90
  %25 = load ptr, ptr %2, align 8, !tbaa !72
  %26 = getelementptr inbounds nuw %struct.sat_solver_t, ptr %25, i32 0, i32 18
  %27 = load ptr, ptr %26, align 8, !tbaa !88
  %28 = load ptr, ptr %2, align 8, !tbaa !72
  %29 = getelementptr inbounds nuw %struct.sat_solver_t, ptr %28, i32 0, i32 17
  %30 = load ptr, ptr %29, align 8, !tbaa !91
  %31 = load ptr, ptr %2, align 8, !tbaa !72
  %32 = getelementptr inbounds nuw %struct.sat_solver_t, ptr %31, i32 0, i32 9
  %33 = load i32, ptr %32, align 8, !tbaa !85
  %34 = sext i32 %33 to i64
  %35 = mul i64 8, %34
  call void @llvm.memcpy.p0.p0.i64(ptr align 8 %27, ptr align 8 %30, i64 %35, i1 false)
  br label %36

36:                                               ; preds = %19, %1
  ret void
}

; Function Attrs: inlinehint nounwind uwtable
define internal i32 @Abc_Base2Log(i32 noundef %0) #2 {
  %2 = alloca i32, align 4
  %3 = alloca i32, align 4
  %4 = alloca i32, align 4
  %5 = alloca i32, align 4
  store i32 %0, ptr %3, align 4, !tbaa !10
  call void @llvm.lifetime.start.p0(i64 4, ptr %4) #12
  %6 = load i32, ptr %3, align 4, !tbaa !10
  %7 = icmp ult i32 %6, 2
  br i1 %7, label %8, label %10

8:                                                ; preds = %1
  %9 = load i32, ptr %3, align 4, !tbaa !10
  store i32 %9, ptr %2, align 4
  store i32 1, ptr %5, align 4
  br label %24

10:                                               ; preds = %1
  store i32 0, ptr %4, align 4, !tbaa !10
  %11 = load i32, ptr %3, align 4, !tbaa !10
  %12 = add i32 %11, -1
  store i32 %12, ptr %3, align 4, !tbaa !10
  br label %13

13:                                               ; preds = %17, %10
  %14 = load i32, ptr %3, align 4, !tbaa !10
  %15 = icmp ne i32 %14, 0
  br i1 %15, label %16, label %22

16:                                               ; preds = %13
  br label %17

17:                                               ; preds = %16
  %18 = load i32, ptr %3, align 4, !tbaa !10
  %19 = lshr i32 %18, 1
  store i32 %19, ptr %3, align 4, !tbaa !10
  %20 = load i32, ptr %4, align 4, !tbaa !10
  %21 = add nsw i32 %20, 1
  store i32 %21, ptr %4, align 4, !tbaa !10
  br label %13, !llvm.loop !71

22:                                               ; preds = %13
  %23 = load i32, ptr %4, align 4, !tbaa !10
  store i32 %23, ptr %2, align 4
  store i32 1, ptr %5, align 4
  br label %24

24:                                               ; preds = %22, %8
  call void @llvm.lifetime.end.p0(i64 4, ptr %4) #12
  %25 = load i32, ptr %2, align 4
  ret i32 %25
}

; Function Attrs: inlinehint nounwind uwtable
define internal i32 @Vec_IntSize(ptr noundef %0) #2 {
  %2 = alloca ptr, align 8
  store ptr %0, ptr %2, align 8, !tbaa !8
  %3 = load ptr, ptr %2, align 8, !tbaa !8
  %4 = getelementptr inbounds nuw %struct.Vec_Int_t_, ptr %3, i32 0, i32 1
  %5 = load i32, ptr %4, align 4, !tbaa !35
  ret i32 %5
}

; Function Attrs: inlinehint nounwind uwtable
define internal ptr @Vec_IntAlloc(i32 noundef %0) #2 {
  %2 = alloca i32, align 4
  %3 = alloca ptr, align 8
  store i32 %0, ptr %2, align 4, !tbaa !10
  call void @llvm.lifetime.start.p0(i64 8, ptr %3) #12
  %4 = call noalias ptr @malloc(i64 noundef 16) #13
  store ptr %4, ptr %3, align 8, !tbaa !8
  %5 = load i32, ptr %2, align 4, !tbaa !10
  %6 = icmp sgt i32 %5, 0
  br i1 %6, label %7, label %11

7:                                                ; preds = %1
  %8 = load i32, ptr %2, align 4, !tbaa !10
  %9 = icmp slt i32 %8, 16
  br i1 %9, label %10, label %11

10:                                               ; preds = %7
  store i32 16, ptr %2, align 4, !tbaa !10
  br label %11

11:                                               ; preds = %10, %7, %1
  %12 = load ptr, ptr %3, align 8, !tbaa !8
  %13 = getelementptr inbounds nuw %struct.Vec_Int_t_, ptr %12, i32 0, i32 1
  store i32 0, ptr %13, align 4, !tbaa !35
  %14 = load i32, ptr %2, align 4, !tbaa !10
  %15 = load ptr, ptr %3, align 8, !tbaa !8
  %16 = getelementptr inbounds nuw %struct.Vec_Int_t_, ptr %15, i32 0, i32 0
  store i32 %14, ptr %16, align 8, !tbaa !36
  %17 = load ptr, ptr %3, align 8, !tbaa !8
  %18 = getelementptr inbounds nuw %struct.Vec_Int_t_, ptr %17, i32 0, i32 0
  %19 = load i32, ptr %18, align 8, !tbaa !36
  %20 = icmp ne i32 %19, 0
  br i1 %20, label %21, label %28

21:                                               ; preds = %11
  %22 = load ptr, ptr %3, align 8, !tbaa !8
  %23 = getelementptr inbounds nuw %struct.Vec_Int_t_, ptr %22, i32 0, i32 0
  %24 = load i32, ptr %23, align 8, !tbaa !36
  %25 = sext i32 %24 to i64
  %26 = mul i64 4, %25
  %27 = call noalias ptr @malloc(i64 noundef %26) #13
  br label %29

28:                                               ; preds = %11
  br label %29

29:                                               ; preds = %28, %21
  %30 = phi ptr [ %27, %21 ], [ null, %28 ]
  %31 = load ptr, ptr %3, align 8, !tbaa !8
  %32 = getelementptr inbounds nuw %struct.Vec_Int_t_, ptr %31, i32 0, i32 2
  store ptr %30, ptr %32, align 8, !tbaa !37
  %33 = load ptr, ptr %3, align 8, !tbaa !8
  call void @llvm.lifetime.end.p0(i64 8, ptr %3) #12
  ret ptr %33
}

; Function Attrs: nounwind uwtable
define ptr @Seg_ManAlloc(ptr noundef %0, i32 noundef %1) #0 {
  %3 = alloca ptr, align 8
  %4 = alloca i32, align 4
  %5 = alloca i32, align 4
  %6 = alloca ptr, align 8
  store ptr %0, ptr %3, align 8, !tbaa !3
  store i32 %1, ptr %4, align 4, !tbaa !10
  call void @llvm.lifetime.start.p0(i64 4, ptr %5) #12
  call void @llvm.lifetime.start.p0(i64 8, ptr %6) #12
  %7 = call noalias ptr @calloc(i64 noundef 1, i64 noundef 120) #14
  store ptr %7, ptr %6, align 8, !tbaa !46
  %8 = call ptr @Vec_IntAlloc(i32 noundef 1000)
  %9 = load ptr, ptr %6, align 8, !tbaa !46
  %10 = getelementptr inbounds nuw %struct.Seg_Man_t_, ptr %9, i32 0, i32 12
  store ptr %8, ptr %10, align 8, !tbaa !62
  %11 = call ptr @Vec_IntAlloc(i32 noundef 1000)
  %12 = load ptr, ptr %6, align 8, !tbaa !46
  %13 = getelementptr inbounds nuw %struct.Seg_Man_t_, ptr %12, i32 0, i32 13
  store ptr %11, ptr %13, align 8, !tbaa !63
  %14 = load ptr, ptr %3, align 8, !tbaa !3
  %15 = load ptr, ptr %6, align 8, !tbaa !46
  %16 = getelementptr inbounds nuw %struct.Seg_Man_t_, ptr %15, i32 0, i32 12
  %17 = load ptr, ptr %16, align 8, !tbaa !62
  %18 = load ptr, ptr %6, align 8, !tbaa !46
  %19 = getelementptr inbounds nuw %struct.Seg_Man_t_, ptr %18, i32 0, i32 13
  %20 = load ptr, ptr %19, align 8, !tbaa !63
  %21 = load i32, ptr %4, align 4, !tbaa !10
  %22 = call ptr @Seg_ManCountIntEdges(ptr noundef %14, ptr noundef %17, ptr noundef %20, i32 noundef %21)
  %23 = load ptr, ptr %6, align 8, !tbaa !46
  %24 = getelementptr inbounds nuw %struct.Seg_Man_t_, ptr %23, i32 0, i32 14
  store ptr %22, ptr %24, align 8, !tbaa !64
  %25 = load ptr, ptr %6, align 8, !tbaa !46
  %26 = getelementptr inbounds nuw %struct.Seg_Man_t_, ptr %25, i32 0, i32 14
  %27 = load ptr, ptr %26, align 8, !tbaa !64
  %28 = call i32 @Vec_IntSize(ptr noundef %27)
  %29 = sdiv i32 %28, 2
  %30 = load ptr, ptr %6, align 8, !tbaa !46
  %31 = getelementptr inbounds nuw %struct.Seg_Man_t_, ptr %30, i32 0, i32 1
  store i32 %29, ptr %31, align 8, !tbaa !65
  %32 = load ptr, ptr %6, align 8, !tbaa !46
  %33 = getelementptr inbounds nuw %struct.Seg_Man_t_, ptr %32, i32 0, i32 1
  %34 = load i32, ptr %33, align 8, !tbaa !65
  %35 = call i32 @Abc_Base2Log(i32 noundef %34)
  %36 = load ptr, ptr %6, align 8, !tbaa !46
  %37 = getelementptr inbounds nuw %struct.Seg_Man_t_, ptr %36, i32 0, i32 2
  store i32 %35, ptr %37, align 4, !tbaa !66
  %38 = load ptr, ptr %6, align 8, !tbaa !46
  %39 = getelementptr inbounds nuw %struct.Seg_Man_t_, ptr %38, i32 0, i32 2
  %40 = load i32, ptr %39, align 4, !tbaa !66
  %41 = shl i32 1, %40
  %42 = load ptr, ptr %6, align 8, !tbaa !46
  %43 = getelementptr inbounds nuw %struct.Seg_Man_t_, ptr %42, i32 0, i32 3
  store i32 %41, ptr %43, align 8, !tbaa !67
  %44 = call ptr @sat_solver_new()
  %45 = load ptr, ptr %6, align 8, !tbaa !46
  %46 = getelementptr inbounds nuw %struct.Seg_Man_t_, ptr %45, i32 0, i32 0
  store ptr %44, ptr %46, align 8, !tbaa !68
  %47 = load ptr, ptr %6, align 8, !tbaa !46
  %48 = getelementptr inbounds nuw %struct.Seg_Man_t_, ptr %47, i32 0, i32 0
  %49 = load ptr, ptr %48, align 8, !tbaa !68
  %50 = load ptr, ptr %6, align 8, !tbaa !46
  %51 = getelementptr inbounds nuw %struct.Seg_Man_t_, ptr %50, i32 0, i32 1
  %52 = load i32, ptr %51, align 8, !tbaa !65
  call void @sat_solver_setnvars(ptr noundef %49, i32 noundef %52)
  %53 = load ptr, ptr %6, align 8, !tbaa !46
  %54 = getelementptr inbounds nuw %struct.Seg_Man_t_, ptr %53, i32 0, i32 0
  %55 = load ptr, ptr %54, align 8, !tbaa !68
  %56 = call i32 @sat_solver_nvars(ptr noundef %55)
  %57 = load ptr, ptr %6, align 8, !tbaa !46
  %58 = getelementptr inbounds nuw %struct.Seg_Man_t_, ptr %57, i32 0, i32 4
  store i32 %56, ptr %58, align 4, !tbaa !69
  %59 = load ptr, ptr %6, align 8, !tbaa !46
  %60 = getelementptr inbounds nuw %struct.Seg_Man_t_, ptr %59, i32 0, i32 0
  %61 = load ptr, ptr %60, align 8, !tbaa !68
  call void @sat_solver_bookmark(ptr noundef %61)
  %62 = load ptr, ptr %3, align 8, !tbaa !3
  %63 = load ptr, ptr %6, align 8, !tbaa !46
  %64 = getelementptr inbounds nuw %struct.Seg_Man_t_, ptr %63, i32 0, i32 11
  store ptr %62, ptr %64, align 8, !tbaa !51
  %65 = call ptr @Vec_IntAlloc(i32 noundef 0)
  %66 = load ptr, ptr %6, align 8, !tbaa !46
  %67 = getelementptr inbounds nuw %struct.Seg_Man_t_, ptr %66, i32 0, i32 15
  store ptr %65, ptr %67, align 8, !tbaa !48
  %68 = call ptr @Vec_IntAlloc(i32 noundef 0)
  %69 = load ptr, ptr %6, align 8, !tbaa !46
  %70 = getelementptr inbounds nuw %struct.Seg_Man_t_, ptr %69, i32 0, i32 16
  store ptr %68, ptr %70, align 8, !tbaa !52
  %71 = call ptr @Vec_IntAlloc(i32 noundef 0)
  %72 = load ptr, ptr %6, align 8, !tbaa !46
  %73 = getelementptr inbounds nuw %struct.Seg_Man_t_, ptr %72, i32 0, i32 17
  store ptr %71, ptr %73, align 8, !tbaa !70
  %74 = load ptr, ptr %6, align 8, !tbaa !46
  %75 = load ptr, ptr %6, align 8, !tbaa !46
  %76 = getelementptr inbounds nuw %struct.Seg_Man_t_, ptr %75, i32 0, i32 4
  %77 = load i32, ptr %76, align 4, !tbaa !69
  %78 = call i32 @Seg_ManCountIntLevels(ptr noundef %74, i32 noundef %77)
  store i32 %78, ptr %5, align 4, !tbaa !10
  %79 = load ptr, ptr %6, align 8, !tbaa !46
  %80 = getelementptr inbounds nuw %struct.Seg_Man_t_, ptr %79, i32 0, i32 0
  %81 = load ptr, ptr %80, align 8, !tbaa !68
  %82 = load i32, ptr %5, align 4, !tbaa !10
  call void @sat_solver_setnvars(ptr noundef %81, i32 noundef %82)
  %83 = load ptr, ptr %3, align 8, !tbaa !3
  call void @Gia_ManFillValue(ptr noundef %83)
  %84 = load ptr, ptr %6, align 8, !tbaa !46
  call void @llvm.lifetime.end.p0(i64 8, ptr %6) #12
  call void @llvm.lifetime.end.p0(i64 4, ptr %5) #12
  ret ptr %84
}